target datalayout = "e-m:e-p270:32:32-p271:32:32-p272:64:64-i64:64-i128:128-f80:128-n8:16:32:64-S128"
target triple = "x86_64-pc-linux-gnu"

%struct.LOCKTAG = type { i32, i32, i32, i16, i8, i8 }

; Function Attrs: nounwind uwtable
define dso_local zeroext i1 @ConditionalXactLockTableWait(i32 noundef %0) #0 {
  %2 = alloca i1, align 1
  %3 = alloca i32, align 4
  %4 = alloca %struct.LOCKTAG, align 4
  %5 = alloca i8, align 1
  %6 = alloca i32, align 4
  store i32 %0, ptr %3, align 4
  call void @llvm.lifetime.start.p0(i64 16, ptr %4) #6
  call void @llvm.lifetime.start.p0(i64 1, ptr %5) #6
  store i8 1, ptr %5, align 1
  br label %7

7:                                                ; preds = %27, %1
  %8 = load i32, ptr %3, align 4
  %9 = getelementptr inbounds nuw %struct.LOCKTAG, ptr %4, i32 0, i32 0
  store i32 %8, ptr %9, align 4
  %10 = getelementptr inbounds nuw %struct.LOCKTAG, ptr %4, i32 0, i32 1
  store i32 0, ptr %10, align 4
  %11 = getelementptr inbounds nuw %struct.LOCKTAG, ptr %4, i32 0, i32 2
  store i32 0, ptr %11, align 4
  %12 = getelementptr inbounds nuw %struct.LOCKTAG, ptr %4, i32 0, i32 3
  store i16 0, ptr %12, align 4
  %13 = getelementptr inbounds nuw %struct.LOCKTAG, ptr %4, i32 0, i32 4
  store i8 5, ptr %13, align 2
  %14 = getelementptr inbounds nuw %struct.LOCKTAG, ptr %4, i32 0, i32 5
  store i8 1, ptr %14, align 1
  %15 = call i32 @LockAcquire(ptr noundef %4, i32 noundef 5, i1 noundef zeroext false, i1 noundef zeroext true)
  %16 = icmp eq i32 %15, 0
  br i1 %16, label %17, label %18

17:                                               ; preds = %7
  store i1 false, ptr %2, align 1
  store i32 1, ptr %6, align 4
  br label %31

18:                                               ; preds = %7
  %19 = call zeroext i1 @LockRelease(ptr noundef %4, i32 noundef 5, i1 noundef zeroext false)
  %20 = load i32, ptr %3, align 4
  %21 = call zeroext i1 @TransactionIdIsInProgress(i32 noundef %20)
  br i1 %21, label %23, label %22

22:                                               ; preds = %18
  br label %30

23:                                               ; preds = %18
  %24 = load i8, ptr %5, align 1, !range !4, !noundef !5
  %25 = trunc i8 %24 to i1
  br i1 %25, label %27, label %26

26:                                               ; preds = %23
  call void @pg_usleep(i64 noundef 1000)
  br label %27

27:                                               ; preds = %26, %23
  store i8 0, ptr %5, align 1
  %28 = load i32, ptr %3, align 4
  %29 = call i32 @SubTransGetTopmostTransaction(i32 noundef %28)
  store i32 %29, ptr %3, align 4
  br label %7

30:                                               ; preds = %22
  store i1 true, ptr %2, align 1
  store i32 1, ptr %6, align 4
  br label %31

31:                                               ; preds = %30, %17
  call void @llvm.lifetime.end.p0(i64 1, ptr %5) #6
  call void @llvm.lifetime.end.p0(i64 16, ptr %4) #6
  %32 = load i1, ptr %2, align 1
  ret i1 %32
}