; Function Attrs: nounwind uwtable
define dso_local noundef zeroext i1 @ConditionalXactLockTableWait(i32 noundef %0) local_unnamed_addr #1 {
  %2 = alloca %struct.LOCKTAG, align 4
  call void @llvm.lifetime.start.p0(i64 16, ptr nonnull %2) #8
  %3 = getelementptr inbounds nuw i8, ptr %2, i64 4
  %4 = getelementptr inbounds nuw i8, ptr %2, i64 8
  %5 = getelementptr inbounds nuw i8, ptr %2, i64 12
  %6 = getelementptr inbounds nuw i8, ptr %2, i64 14
  %7 = getelementptr inbounds nuw i8, ptr %2, i64 15
  store i32 %0, ptr %2, align 4
  store i32 0, ptr %3, align 4
  store i32 0, ptr %4, align 4
  store i16 0, ptr %5, align 4
  store i8 5, ptr %6, align 2
  store i8 1, ptr %7, align 1
  %8 = call i32 @LockAcquire(ptr noundef nonnull %2, i32 noundef 5, i1 noundef zeroext false, i1 noundef zeroext true) #8
  %.not = icmp eq i32 %8, 0
  br i1 %.not, label %._crit_edge, label %.lr.ph

.lr.ph:                                           ; preds = %1, %13
  %.07 = phi i1 [ false, %13 ], [ true, %1 ]
  %.046 = phi i32 [ %14, %13 ], [ %0, %1 ]
  %9 = call zeroext i1 @LockRelease(ptr noundef nonnull %2, i32 noundef 5, i1 noundef zeroext false) #8
  %10 = call zeroext i1 @TransactionIdIsInProgress(i32 noundef %.046) #8
  br i1 %10, label %11, label %._crit_edge.loopexit

11:                                               ; preds = %.lr.ph
  br i1 %.07, label %13, label %12

12:                                               ; preds = %11
  call void @pg_usleep(i64 noundef 1000) #8
  br label %13

13:                                               ; preds = %12, %11
  %14 = call i32 @SubTransGetTopmostTransaction(i32 noundef %.046) #8
  store i32 %14, ptr %2, align 4
  store i32 0, ptr %3, align 4
  store i32 0, ptr %4, align 4
  store i16 0, ptr %5, align 4
  store i8 5, ptr %6, align 2
  store i8 1, ptr %7, align 1
  %15 = call i32 @LockAcquire(ptr noundef nonnull %2, i32 noundef 5, i1 noundef zeroext false, i1 noundef zeroext true) #8
  %.not10 = icmp eq i32 %15, 0
  br i1 %.not10, label %._crit_edge.loopexit, label %.lr.ph

._crit_edge.loopexit:                             ; preds = %.lr.ph, %13
  %.lcssa.ph = xor i1 %10, true
  br label %._crit_edge

._crit_edge:                                      ; preds = %._crit_edge.loopexit, %1
  %.lcssa = phi i1 [ false, %1 ], [ %.lcssa.ph, %._crit_edge.loopexit ]
  call void @llvm.lifetime.end.p0(i64 16, ptr nonnull %2) #8
  ret i1 %.lcssa
}